#include <math.h>
#include <stdio.h>
#include <stdlib.h>
#include <string.h>

int main()
{
 int n,i,j,c[100000];
 double sum,a[10000],b[100000];
 scanf("%d",&n);
 for(i=0;i<n;i++)
  scanf("%d",&c[i]);
 a[0]=1;
 a[1]=1;
 for(j=0;j<n;j++)
 {
  for(i=2;i<c[j]+2;i++)
   a[i]=a[i-2]+a[i-1];
  for(i=0;i<c[j];i++)
   b[i]=a[i+2]/a[i+1]; 
  sum=0;
  for(i=0;i<c[j];i++)
   sum=sum+b[i];
  printf("%.3lf\n",sum);
 }
 getchar();
 getchar();
 return 0;      
}
