; ModuleID = '29/320.c'
source_filename = "29/320.c"
target datalayout = "e-m:e-p270:32:32-p271:32:32-p272:64:64-i64:64-f80:128-n8:16:32:64-S128"
target triple = "x86_64-pc-linux-gnu"

@.str = private unnamed_addr constant [3 x i8] c"%d\00", align 1
@.str.1 = private unnamed_addr constant [7 x i8] c"%.3lf\0A\00", align 1

; Function Attrs: noinline nounwind uwtable
define dso_local i32 @main() #0 {
  %1 = alloca i32, align 4
  %2 = alloca i32, align 4
  %3 = alloca i32, align 4
  %4 = alloca i32, align 4
  %5 = alloca [100000 x i32], align 16
  %6 = alloca double, align 8
  %7 = alloca [10000 x double], align 16
  %8 = alloca [100000 x double], align 16
  store i32 0, i32* %1, align 4
  %9 = call i32 (i8*, ...) @__isoc99_scanf(i8* getelementptr inbounds ([3 x i8], [3 x i8]* @.str, i64 0, i64 0), i32* %2)
  store i32 0, i32* %3, align 4
  br label %10

10:                                               ; preds = %19, %0
  %11 = load i32, i32* %3, align 4
  %12 = load i32, i32* %2, align 4
  %13 = icmp slt i32 %11, %12
  br i1 %13, label %14, label %22

14:                                               ; preds = %10
  %15 = load i32, i32* %3, align 4
  %16 = sext i32 %15 to i64
  %17 = getelementptr inbounds [100000 x i32], [100000 x i32]* %5, i64 0, i64 %16
  %18 = call i32 (i8*, ...) @__isoc99_scanf(i8* getelementptr inbounds ([3 x i8], [3 x i8]* @.str, i64 0, i64 0), i32* %17)
  br label %19

19:                                               ; preds = %14
  %20 = load i32, i32* %3, align 4
  %21 = add nsw i32 %20, 1
  store i32 %21, i32* %3, align 4
  br label %10

22:                                               ; preds = %10
  %23 = getelementptr inbounds [10000 x double], [10000 x double]* %7, i64 0, i64 0
  store double 1.000000e+00, double* %23, align 16
  %24 = getelementptr inbounds [10000 x double], [10000 x double]* %7, i64 0, i64 1
  store double 1.000000e+00, double* %24, align 8
  store i32 0, i32* %4, align 4
  br label %25

25:                                               ; preds = %103, %22
  %26 = load i32, i32* %4, align 4
  %27 = load i32, i32* %2, align 4
  %28 = icmp slt i32 %26, %27
  br i1 %28, label %29, label %106

29:                                               ; preds = %25
  store i32 2, i32* %3, align 4
  br label %30

30:                                               ; preds = %53, %29
  %31 = load i32, i32* %3, align 4
  %32 = load i32, i32* %4, align 4
  %33 = sext i32 %32 to i64
  %34 = getelementptr inbounds [100000 x i32], [100000 x i32]* %5, i64 0, i64 %33
  %35 = load i32, i32* %34, align 4
  %36 = add nsw i32 %35, 2
  %37 = icmp slt i32 %31, %36
  br i1 %37, label %38, label %56

38:                                               ; preds = %30
  %39 = load i32, i32* %3, align 4
  %40 = sub nsw i32 %39, 2
  %41 = sext i32 %40 to i64
  %42 = getelementptr inbounds [10000 x double], [10000 x double]* %7, i64 0, i64 %41
  %43 = load double, double* %42, align 8
  %44 = load i32, i32* %3, align 4
  %45 = sub nsw i32 %44, 1
  %46 = sext i32 %45 to i64
  %47 = getelementptr inbounds [10000 x double], [10000 x double]* %7, i64 0, i64 %46
  %48 = load double, double* %47, align 8
  %49 = fadd double %43, %48
  %50 = load i32, i32* %3, align 4
  %51 = sext i32 %50 to i64
  %52 = getelementptr inbounds [10000 x double], [10000 x double]* %7, i64 0, i64 %51
  store double %49, double* %52, align 8
  br label %53

53:                                               ; preds = %38
  %54 = load i32, i32* %3, align 4
  %55 = add nsw i32 %54, 1
  store i32 %55, i32* %3, align 4
  br label %30

56:                                               ; preds = %30
  store i32 0, i32* %3, align 4
  br label %57

57:                                               ; preds = %79, %56
  %58 = load i32, i32* %3, align 4
  %59 = load i32, i32* %4, align 4
  %60 = sext i32 %59 to i64
  %61 = getelementptr inbounds [100000 x i32], [100000 x i32]* %5, i64 0, i64 %60
  %62 = load i32, i32* %61, align 4
  %63 = icmp slt i32 %58, %62
  br i1 %63, label %64, label %82

64:                                               ; preds = %57
  %65 = load i32, i32* %3, align 4
  %66 = add nsw i32 %65, 2
  %67 = sext i32 %66 to i64
  %68 = getelementptr inbounds [10000 x double], [10000 x double]* %7, i64 0, i64 %67
  %69 = load double, double* %68, align 8
  %70 = load i32, i32* %3, align 4
  %71 = add nsw i32 %70, 1
  %72 = sext i32 %71 to i64
  %73 = getelementptr inbounds [10000 x double], [10000 x double]* %7, i64 0, i64 %72
  %74 = load double, double* %73, align 8
  %75 = fdiv double %69, %74
  %76 = load i32, i32* %3, align 4
  %77 = sext i32 %76 to i64
  %78 = getelementptr inbounds [100000 x double], [100000 x double]* %8, i64 0, i64 %77
  store double %75, double* %78, align 8
  br label %79

79:                                               ; preds = %64
  %80 = load i32, i32* %3, align 4
  %81 = add nsw i32 %80, 1
  store i32 %81, i32* %3, align 4
  br label %57

82:                                               ; preds = %57
  store double 0.000000e+00, double* %6, align 8
  store i32 0, i32* %3, align 4
  br label %83

83:                                               ; preds = %97, %82
  %84 = load i32, i32* %3, align 4
  %85 = load i32, i32* %4, align 4
  %86 = sext i32 %85 to i64
  %87 = getelementptr inbounds [100000 x i32], [100000 x i32]* %5, i64 0, i64 %86
  %88 = load i32, i32* %87, align 4
  %89 = icmp slt i32 %84, %88
  br i1 %89, label %90, label %100

90:                                               ; preds = %83
  %91 = load double, double* %6, align 8
  %92 = load i32, i32* %3, align 4
  %93 = sext i32 %92 to i64
  %94 = getelementptr inbounds [100000 x double], [100000 x double]* %8, i64 0, i64 %93
  %95 = load double, double* %94, align 8
  %96 = fadd double %91, %95
  store double %96, double* %6, align 8
  br label %97

97:                                               ; preds = %90
  %98 = load i32, i32* %3, align 4
  %99 = add nsw i32 %98, 1
  store i32 %99, i32* %3, align 4
  br label %83

100:                                              ; preds = %83
  %101 = load double, double* %6, align 8
  %102 = call i32 (i8*, ...) @printf(i8* getelementptr inbounds ([7 x i8], [7 x i8]* @.str.1, i64 0, i64 0), double %101)
  br label %103

103:                                              ; preds = %100
  %104 = load i32, i32* %4, align 4
  %105 = add nsw i32 %104, 1
  store i32 %105, i32* %4, align 4
  br label %25

106:                                              ; preds = %25
  %107 = call i32 @getchar()
  %108 = call i32 @getchar()
  ret i32 0
}

declare dso_local i32 @__isoc99_scanf(i8*, ...) #1

declare dso_local i32 @printf(i8*, ...) #1

declare dso_local i32 @getchar() #1


!llvm.module.flags = !{!0}
!llvm.ident = !{!1}

!0 = !{i32 1, !"wchar_size", i32 4}
!1 = !{!"clang version 10.0.0-4ubuntu1 "}
